target datalayout = "e-m:e-p270:32:32-p271:32:32-p272:64:64-i64:64-i128:128-f80:128-n8:16:32:64-S128"
target triple = "x86_64-pc-linux-gnu"

%struct._zend_fiber_stack = type { ptr, i64 }
%struct._zend_fiber_context = type { ptr, ptr, ptr, ptr, ptr, i32, ptr, [6 x ptr] }

@.str.17 = private unnamed_addr constant [65 x i8] c"Fiber stack size is too small, it needs to be at least %zu bytes\00", align 1
@.str.18 = private unnamed_addr constant [50 x i8] c"Fiber stack allocate failed: mmap failed: %s (%d)\00", align 1
@.str.19 = private unnamed_addr constant [17 x i8] c"zend_fiber_stack\00", align 1
@.str.20 = private unnamed_addr constant [53 x i8] c"Fiber stack protect failed: mprotect failed: %s (%d)\00", align 1
@zend_fiber_get_page_size.page_size = internal global i64 0, align 8

; Function Attrs: alwaysinline nounwind uwtable
define internal void @zend_mmap_set_name(ptr noundef %0, i64 noundef %1, ptr noundef %2) #6 {
  %4 = alloca ptr, align 8
  %5 = alloca i64, align 8
  %6 = alloca ptr, align 8
  store ptr %0, ptr %4, align 8, !tbaa !50
  store i64 %1, ptr %5, align 8, !tbaa !44
  store ptr %2, ptr %6, align 8, !tbaa !130
  %7 = load ptr, ptr %4, align 8, !tbaa !50
  %8 = ptrtoint ptr %7 to i64
  %9 = load i64, ptr %5, align 8, !tbaa !44
  %10 = load ptr, ptr %6, align 8, !tbaa !130
  %11 = ptrtoint ptr %10 to i64
  %12 = call i32 (i32, ...) @prctl(i32 noundef 1398164801, i32 noundef 0, i64 noundef %8, i64 noundef %9, i64 noundef %11) #18
  ret void
}

; Function Attrs: nounwind uwtable
define internal i64 @zend_fiber_get_page_size() #0 {
  %1 = load i64, ptr @zend_fiber_get_page_size.page_size, align 8, !tbaa !44
  %2 = icmp ne i64 %1, 0
  br i1 %2, label %15, label %3

3:                                                ; preds = %0
  %4 = call i64 @zend_get_page_size()
  store i64 %4, ptr @zend_fiber_get_page_size.page_size, align 8, !tbaa !44
  %5 = load i64, ptr @zend_fiber_get_page_size.page_size, align 8, !tbaa !44
  %6 = icmp ne i64 %5, 0
  br i1 %6, label %7, label %13

7:                                                ; preds = %3
  %8 = load i64, ptr @zend_fiber_get_page_size.page_size, align 8, !tbaa !44
  %9 = load i64, ptr @zend_fiber_get_page_size.page_size, align 8, !tbaa !44
  %10 = sub i64 %9, 1
  %11 = and i64 %8, %10
  %12 = icmp ne i64 %11, 0
  br i1 %12, label %13, label %14

13:                                               ; preds = %7, %3
  store i64 4096, ptr @zend_fiber_get_page_size.page_size, align 8, !tbaa !44
  br label %14

14:                                               ; preds = %13, %7
  br label %15

15:                                               ; preds = %14, %0
  %16 = load i64, ptr @zend_fiber_get_page_size.page_size, align 8, !tbaa !44
  ret i64 %16
}

; Function Attrs: nounwind uwtable
define internal ptr @zend_fiber_stack_allocate(i64 noundef %0) #0 {
  %2 = alloca ptr, align 8
  %3 = alloca i64, align 8
  %4 = alloca ptr, align 8
  %5 = alloca i64, align 8
  %6 = alloca i64, align 8
  %7 = alloca i32, align 4
  %8 = alloca i64, align 8
  %9 = alloca i64, align 8
  %10 = alloca ptr, align 8
  store i64 %0, ptr %3, align 8, !tbaa !44
  call void @llvm.lifetime.start.p0(i64 8, ptr %4) #18
  call void @llvm.lifetime.start.p0(i64 8, ptr %5) #18
  %11 = call i64 @zend_fiber_get_page_size()
  store i64 %11, ptr %5, align 8, !tbaa !44
  call void @llvm.lifetime.start.p0(i64 8, ptr %6) #18
  %12 = load i64, ptr %5, align 8, !tbaa !44
  %13 = load i64, ptr %5, align 8, !tbaa !44
  %14 = mul i64 1, %13
  %15 = add i64 %12, %14
  store i64 %15, ptr %6, align 8, !tbaa !44
  %16 = load i64, ptr %3, align 8, !tbaa !44
  %17 = load i64, ptr %6, align 8, !tbaa !44
  %18 = icmp ult i64 %16, %17
  br i1 %18, label %19, label %22

19:                                               ; preds = %1
  %20 = load i64, ptr %6, align 8, !tbaa !44
  %21 = call ptr (ptr, i64, ptr, ...) @zend_throw_exception_ex(ptr noundef null, i64 noundef 0, ptr noundef @.str.17, i64 noundef %20)
  store ptr null, ptr %2, align 8
  store i32 1, ptr %7, align 4
  br label %82

22:                                               ; preds = %1
  call void @llvm.lifetime.start.p0(i64 8, ptr %8) #18
  %23 = load i64, ptr %3, align 8, !tbaa !44
  %24 = load i64, ptr %5, align 8, !tbaa !44
  %25 = add i64 %23, %24
  %26 = sub i64 %25, 1
  %27 = load i64, ptr %5, align 8, !tbaa !44
  %28 = udiv i64 %26, %27
  %29 = load i64, ptr %5, align 8, !tbaa !44
  %30 = mul i64 %28, %29
  store i64 %30, ptr %8, align 8, !tbaa !44
  call void @llvm.lifetime.start.p0(i64 8, ptr %9) #18
  %31 = load i64, ptr %8, align 8, !tbaa !44
  %32 = load i64, ptr %5, align 8, !tbaa !44
  %33 = mul i64 1, %32
  %34 = add i64 %31, %33
  store i64 %34, ptr %9, align 8, !tbaa !44
  %35 = load i64, ptr %9, align 8, !tbaa !44
  %36 = call ptr @mmap(ptr noundef null, i64 noundef %35, i32 noundef 3, i32 noundef 131106, i32 noundef -1, i64 noundef 0) #18
  store ptr %36, ptr %4, align 8, !tbaa !50
  %37 = load ptr, ptr %4, align 8, !tbaa !50
  %38 = icmp eq ptr %37, inttoptr (i64 -1 to ptr)
  br i1 %38, label %39, label %46

39:                                               ; preds = %22
  %40 = call ptr @__errno_location() #19
  %41 = load i32, ptr %40, align 4, !tbaa !48
  %42 = call ptr @strerror(i32 noundef %41) #18
  %43 = call ptr @__errno_location() #19
  %44 = load i32, ptr %43, align 4, !tbaa !48
  %45 = call ptr (ptr, i64, ptr, ...) @zend_throw_exception_ex(ptr noundef null, i64 noundef 0, ptr noundef @.str.18, ptr noundef %42, i32 noundef %44)
  store ptr null, ptr %2, align 8
  store i32 1, ptr %7, align 4
  br label %81

46:                                               ; preds = %22
  %47 = load ptr, ptr %4, align 8, !tbaa !50
  %48 = load i64, ptr %9, align 8, !tbaa !44
  %49 = call i32 @madvise(ptr noundef %47, i64 noundef %48, i32 noundef 15) #18
  %50 = load ptr, ptr %4, align 8, !tbaa !50
  %51 = load i64, ptr %9, align 8, !tbaa !44
  call void @zend_mmap_set_name(ptr noundef %50, i64 noundef %51, ptr noundef @.str.19)
  %52 = load ptr, ptr %4, align 8, !tbaa !50
  %53 = load i64, ptr %5, align 8, !tbaa !44
  %54 = mul i64 1, %53
  %55 = call i32 @mprotect(ptr noundef %52, i64 noundef %54, i32 noundef 0) #18
  %56 = icmp slt i32 %55, 0
  br i1 %56, label %57, label %67

57:                                               ; preds = %46
  %58 = call ptr @__errno_location() #19
  %59 = load i32, ptr %58, align 4, !tbaa !48
  %60 = call ptr @strerror(i32 noundef %59) #18
  %61 = call ptr @__errno_location() #19
  %62 = load i32, ptr %61, align 4, !tbaa !48
  %63 = call ptr (ptr, i64, ptr, ...) @zend_throw_exception_ex(ptr noundef null, i64 noundef 0, ptr noundef @.str.20, ptr noundef %60, i32 noundef %62)
  %64 = load ptr, ptr %4, align 8, !tbaa !50
  %65 = load i64, ptr %9, align 8, !tbaa !44
  %66 = call i32 @munmap(ptr noundef %64, i64 noundef %65) #18
  store ptr null, ptr %2, align 8
  store i32 1, ptr %7, align 4
  br label %81

67:                                               ; preds = %46
  call void @llvm.lifetime.start.p0(i64 8, ptr %10) #18
  %68 = call noalias ptr @_emalloc_16()
  store ptr %68, ptr %10, align 8, !tbaa !4
  %69 = load ptr, ptr %4, align 8, !tbaa !50
  %70 = ptrtoint ptr %69 to i64
  %71 = load i64, ptr %5, align 8, !tbaa !44
  %72 = mul i64 1, %71
  %73 = add i64 %70, %72
  %74 = inttoptr i64 %73 to ptr
  %75 = load ptr, ptr %10, align 8, !tbaa !4
  %76 = getelementptr inbounds nuw %struct._zend_fiber_stack, ptr %75, i32 0, i32 0
  store ptr %74, ptr %76, align 8, !tbaa !45
  %77 = load i64, ptr %8, align 8, !tbaa !44
  %78 = load ptr, ptr %10, align 8, !tbaa !4
  %79 = getelementptr inbounds nuw %struct._zend_fiber_stack, ptr %78, i32 0, i32 1
  store i64 %77, ptr %79, align 8, !tbaa !47
  %80 = load ptr, ptr %10, align 8, !tbaa !4
  store ptr %80, ptr %2, align 8
  store i32 1, ptr %7, align 4
  call void @llvm.lifetime.end.p0(i64 8, ptr %10) #18
  br label %81

81:                                               ; preds = %67, %57, %39
  call void @llvm.lifetime.end.p0(i64 8, ptr %9) #18
  call void @llvm.lifetime.end.p0(i64 8, ptr %8) #18
  br label %82

82:                                               ; preds = %81, %19
  call void @llvm.lifetime.end.p0(i64 8, ptr %6) #18
  call void @llvm.lifetime.end.p0(i64 8, ptr %5) #18
  call void @llvm.lifetime.end.p0(i64 8, ptr %4) #18
  %83 = load ptr, ptr %2, align 8
  ret ptr %83
}

; Function Attrs: nounwind uwtable
define dso_local i32 @zend_fiber_init_context(ptr noundef %0, ptr noundef %1, ptr noundef %2, i64 noundef %3) #0 {
  %5 = alloca i32, align 4
  %6 = alloca ptr, align 8
  %7 = alloca ptr, align 8
  %8 = alloca ptr, align 8
  %9 = alloca i64, align 8
  %10 = alloca ptr, align 8
  store ptr %0, ptr %6, align 8, !tbaa !49
  store ptr %1, ptr %7, align 8, !tbaa !50
  store ptr %2, ptr %8, align 8, !tbaa !50
  store i64 %3, ptr %9, align 8, !tbaa !44
  %11 = load i64, ptr %9, align 8, !tbaa !44
  %12 = call ptr @zend_fiber_stack_allocate(i64 noundef %11)
  %13 = load ptr, ptr %6, align 8, !tbaa !49
  %14 = getelementptr inbounds nuw %struct._zend_fiber_context, ptr %13, i32 0, i32 4
  store ptr %12, ptr %14, align 8, !tbaa !51
  %15 = load ptr, ptr %6, align 8, !tbaa !49
  %16 = getelementptr inbounds nuw %struct._zend_fiber_context, ptr %15, i32 0, i32 4
  %17 = load ptr, ptr %16, align 8, !tbaa !51
  %18 = icmp ne ptr %17, null
  %19 = xor i1 %18, true
  %20 = xor i1 %19, true
  %21 = xor i1 %20, true
  %22 = zext i1 %21 to i32
  %23 = sext i32 %22 to i64
  %24 = call i64 @llvm.expect.i64(i64 %23, i64 0)
  %25 = icmp ne i64 %24, 0
  br i1 %25, label %26, label %27

26:                                               ; preds = %4
  store i32 -1, ptr %5, align 4
  br label %66

27:                                               ; preds = %4
  call void @llvm.lifetime.start.p0(i64 8, ptr %10) #18
  %28 = load ptr, ptr %6, align 8, !tbaa !49
  %29 = getelementptr inbounds nuw %struct._zend_fiber_context, ptr %28, i32 0, i32 4
  %30 = load ptr, ptr %29, align 8, !tbaa !51
  %31 = getelementptr inbounds nuw %struct._zend_fiber_stack, ptr %30, i32 0, i32 0
  %32 = load ptr, ptr %31, align 8, !tbaa !45
  %33 = ptrtoint ptr %32 to i64
  %34 = load ptr, ptr %6, align 8, !tbaa !49
  %35 = getelementptr inbounds nuw %struct._zend_fiber_context, ptr %34, i32 0, i32 4
  %36 = load ptr, ptr %35, align 8, !tbaa !51
  %37 = getelementptr inbounds nuw %struct._zend_fiber_stack, ptr %36, i32 0, i32 1
  %38 = load i64, ptr %37, align 8, !tbaa !47
  %39 = add i64 %33, %38
  %40 = inttoptr i64 %39 to ptr
  store ptr %40, ptr %10, align 8, !tbaa !50
  %41 = load ptr, ptr %10, align 8, !tbaa !50
  %42 = load ptr, ptr %6, align 8, !tbaa !49
  %43 = getelementptr inbounds nuw %struct._zend_fiber_context, ptr %42, i32 0, i32 4
  %44 = load ptr, ptr %43, align 8, !tbaa !51
  %45 = getelementptr inbounds nuw %struct._zend_fiber_stack, ptr %44, i32 0, i32 1
  %46 = load i64, ptr %45, align 8, !tbaa !47
  %47 = call ptr @make_fcontext(ptr noundef %41, i64 noundef %46, ptr noundef @zend_fiber_trampoline)
  %48 = load ptr, ptr %6, align 8, !tbaa !49
  %49 = getelementptr inbounds nuw %struct._zend_fiber_context, ptr %48, i32 0, i32 0
  store ptr %47, ptr %49, align 8, !tbaa !53
  %50 = load ptr, ptr %6, align 8, !tbaa !49
  %51 = getelementptr inbounds nuw %struct._zend_fiber_context, ptr %50, i32 0, i32 0
  %52 = load ptr, ptr %51, align 8, !tbaa !53
  %53 = icmp ne ptr %52, null
  br i1 %53, label %54, label %55

54:                                               ; preds = %27
  br label %55

55:                                               ; preds = %54, %27
  %56 = phi i1 [ false, %27 ], [ true, %54 ]
  call void @llvm.assume(i1 %56)
  %57 = load ptr, ptr %7, align 8, !tbaa !50
  %58 = load ptr, ptr %6, align 8, !tbaa !49
  %59 = getelementptr inbounds nuw %struct._zend_fiber_context, ptr %58, i32 0, i32 1
  store ptr %57, ptr %59, align 8, !tbaa !54
  %60 = load ptr, ptr %8, align 8, !tbaa !50
  %61 = load ptr, ptr %6, align 8, !tbaa !49
  %62 = getelementptr inbounds nuw %struct._zend_fiber_context, ptr %61, i32 0, i32 2
  store ptr %60, ptr %62, align 8, !tbaa !55
  %63 = load ptr, ptr %6, align 8, !tbaa !49
  %64 = getelementptr inbounds nuw %struct._zend_fiber_context, ptr %63, i32 0, i32 5
  store i32 0, ptr %64, align 8, !tbaa !56
  %65 = load ptr, ptr %6, align 8, !tbaa !49
  call void @zend_observer_fiber_init_notify(ptr noundef %65)
  store i32 0, ptr %5, align 4
  call void @llvm.lifetime.end.p0(i64 8, ptr %10) #18
  br label %66

66:                                               ; preds = %55, %26
  %67 = load i32, ptr %5, align 4
  ret i32 %67
}