; Function Attrs: nounwind uwtable
define dso_local range(i32 -1, 1) i32 @zend_fiber_init_context(ptr noundef initializes((32, 40)) %0, ptr noundef %1, ptr noundef %2, i64 noundef %3) local_unnamed_addr #7 {
  %5 = load i64, ptr @zend_fiber_get_page_size.page_size, align 8, !tbaa !46
  %.not.i.i = icmp eq i64 %5, 0
  br i1 %.not.i.i, label %6, label %zend_fiber_get_page_size.exit.i

6:                                                ; preds = %4
  %7 = tail call i64 @zend_get_page_size() #22
  %8 = tail call range(i64 0, 65) i64 @llvm.ctpop.i64(i64 %7)
  %or.cond.i.i = icmp eq i64 %8, 1
  %spec.store.select.i.i = select i1 %or.cond.i.i, i64 %7, i64 4096
  store i64 %spec.store.select.i.i, ptr @zend_fiber_get_page_size.page_size, align 8
  br label %zend_fiber_get_page_size.exit.i

zend_fiber_get_page_size.exit.i:                  ; preds = %6, %4
  %9 = phi i64 [ %spec.store.select.i.i, %6 ], [ %5, %4 ]
  %.fr.i = freeze i64 %9
  %10 = shl i64 %.fr.i, 1
  %11 = icmp ult i64 %3, %10
  br i1 %11, label %12, label %14

12:                                               ; preds = %zend_fiber_get_page_size.exit.i
  %13 = tail call ptr (ptr, i64, ptr, ...) @zend_throw_exception_ex(ptr noundef null, i64 noundef 0, ptr noundef nonnull @.str.17, i64 noundef %10) #22
  br label %zend_fiber_stack_allocate.exit.thread

14:                                               ; preds = %zend_fiber_get_page_size.exit.i
  %15 = add i64 %3, -1
  %16 = add i64 %15, %.fr.i
  %17 = urem i64 %16, %.fr.i
  %18 = sub nuw i64 %16, %17
  %19 = add i64 %18, %.fr.i
  %20 = tail call ptr @mmap(ptr noundef null, i64 noundef %19, i32 noundef 3, i32 noundef 131106, i32 noundef -1, i64 noundef 0) #22
  %21 = icmp eq ptr %20, inttoptr (i64 -1 to ptr)
  br i1 %21, label %22, label %28

22:                                               ; preds = %14
  %23 = tail call ptr @__errno_location() #23
  %24 = load i32, ptr %23, align 4, !tbaa !45
  %25 = tail call ptr @strerror(i32 noundef %24) #22
  %26 = load i32, ptr %23, align 4, !tbaa !45
  %27 = tail call ptr (ptr, i64, ptr, ...) @zend_throw_exception_ex(ptr noundef null, i64 noundef 0, ptr noundef nonnull @.str.18, ptr noundef %25, i32 noundef %26) #22
  br label %zend_fiber_stack_allocate.exit.thread

28:                                               ; preds = %14
  %29 = tail call i32 @madvise(ptr noundef %20, i64 noundef %19, i32 noundef 15) #22
  %30 = ptrtoint ptr %20 to i64
  %31 = tail call i32 (i32, ...) @prctl(i32 noundef 1398164801, i32 noundef 0, i64 noundef %30, i64 noundef %19, i64 noundef ptrtoint (ptr @.str.19 to i64)) #22
  %32 = tail call i32 @mprotect(ptr noundef %20, i64 noundef %.fr.i, i32 noundef 0) #22
  %33 = icmp slt i32 %32, 0
  br i1 %33, label %34, label %42

34:                                               ; preds = %28
  %35 = tail call ptr @__errno_location() #23
  %36 = load i32, ptr %35, align 4, !tbaa !45
  %37 = tail call ptr @strerror(i32 noundef %36) #22
  %38 = load i32, ptr %35, align 4, !tbaa !45
  %39 = tail call ptr (ptr, i64, ptr, ...) @zend_throw_exception_ex(ptr noundef null, i64 noundef 0, ptr noundef nonnull @.str.20, ptr noundef %37, i32 noundef %38) #22
  %40 = tail call i32 @munmap(ptr noundef %20, i64 noundef %19) #22
  br label %zend_fiber_stack_allocate.exit.thread

zend_fiber_stack_allocate.exit.thread:            ; preds = %12, %22, %34
  %41 = getelementptr inbounds nuw i8, ptr %0, i64 32
  store ptr null, ptr %41, align 8, !tbaa !47
  br label %55

42:                                               ; preds = %28
  %43 = tail call noalias ptr @_emalloc_16() #22
  %44 = add i64 %.fr.i, %30
  %45 = inttoptr i64 %44 to ptr
  store ptr %45, ptr %43, align 8, !tbaa !42
  %46 = getelementptr inbounds nuw i8, ptr %43, i64 8
  store i64 %18, ptr %46, align 8, !tbaa !44
  %47 = getelementptr inbounds nuw i8, ptr %0, i64 32
  store ptr %43, ptr %47, align 8, !tbaa !47
  %48 = add i64 %44, %18
  %49 = inttoptr i64 %48 to ptr
  %50 = tail call ptr @make_fcontext(ptr noundef %49, i64 noundef %18, ptr noundef nonnull @zend_fiber_trampoline) #22
  store ptr %50, ptr %0, align 8, !tbaa !50
  %51 = icmp ne ptr %50, null
  tail call void @llvm.assume(i1 %51)
  %52 = getelementptr inbounds nuw i8, ptr %0, i64 8
  store ptr %1, ptr %52, align 8, !tbaa !51
  %53 = getelementptr inbounds nuw i8, ptr %0, i64 16
  store ptr %2, ptr %53, align 8, !tbaa !52
  %54 = getelementptr inbounds nuw i8, ptr %0, i64 40
  store i32 0, ptr %54, align 8, !tbaa !53
  tail call void @zend_observer_fiber_init_notify(ptr noundef nonnull %0) #22
  br label %55

55:                                               ; preds = %zend_fiber_stack_allocate.exit.thread, %42
  %.0 = phi i32 [ 0, %42 ], [ -1, %zend_fiber_stack_allocate.exit.thread ]
  ret i32 %.0
}